target datalayout = "e-m:e-p270:32:32-p271:32:32-p272:64:64-i64:64-i128:128-f80:128-n8:16:32:64-S128"
target triple = "x86_64-pc-linux-gnu"

%struct.TSQueryParserStateData = type { ptr, ptr, ptr, i32, i32, ptr, ptr, ptr, i32, i32, ptr, ptr }

; Function Attrs: nounwind uwtable
define internal i32 @gettoken_query_plain(ptr noundef %0, ptr noundef %1, ptr noundef %2, ptr noundef %3, ptr noundef %4, ptr noundef %5) #0 {
  %7 = alloca i32, align 4
  %8 = alloca ptr, align 8
  %9 = alloca ptr, align 8
  %10 = alloca ptr, align 8
  %11 = alloca ptr, align 8
  %12 = alloca ptr, align 8
  %13 = alloca ptr, align 8
  store ptr %0, ptr %8, align 8
  store ptr %1, ptr %9, align 8
  store ptr %2, ptr %10, align 8
  store ptr %3, ptr %11, align 8
  store ptr %4, ptr %12, align 8
  store ptr %5, ptr %13, align 8
  %14 = load ptr, ptr %12, align 8
  store i16 0, ptr %14, align 2
  %15 = load ptr, ptr %13, align 8
  store i8 0, ptr %15, align 1
  %16 = load ptr, ptr %8, align 8
  %17 = getelementptr inbounds nuw %struct.TSQueryParserStateData, ptr %16, i32 0, i32 2
  %18 = load ptr, ptr %17, align 8
  %19 = load i8, ptr %18, align 1
  %20 = sext i8 %19 to i32
  %21 = icmp eq i32 %20, 0
  br i1 %21, label %22, label %23

22:                                               ; preds = %6
  store i32 0, ptr %7, align 4
  br label %45

23:                                               ; preds = %6
  %24 = load ptr, ptr %8, align 8
  %25 = getelementptr inbounds nuw %struct.TSQueryParserStateData, ptr %24, i32 0, i32 2
  %26 = load ptr, ptr %25, align 8
  %27 = load ptr, ptr %11, align 8
  store ptr %26, ptr %27, align 8
  %28 = load ptr, ptr %8, align 8
  %29 = getelementptr inbounds nuw %struct.TSQueryParserStateData, ptr %28, i32 0, i32 2
  %30 = load ptr, ptr %29, align 8
  %31 = call i64 @strlen(ptr noundef %30) #13
  %32 = trunc i64 %31 to i32
  %33 = load ptr, ptr %10, align 8
  store i32 %32, ptr %33, align 4
  %34 = load ptr, ptr %10, align 8
  %35 = load i32, ptr %34, align 4
  %36 = load ptr, ptr %8, align 8
  %37 = getelementptr inbounds nuw %struct.TSQueryParserStateData, ptr %36, i32 0, i32 2
  %38 = load ptr, ptr %37, align 8
  %39 = sext i32 %35 to i64
  %40 = getelementptr inbounds i8, ptr %38, i64 %39
  store ptr %40, ptr %37, align 8
  %41 = load ptr, ptr %8, align 8
  %42 = getelementptr inbounds nuw %struct.TSQueryParserStateData, ptr %41, i32 0, i32 3
  %43 = load i32, ptr %42, align 8
  %44 = add i32 %43, 1
  store i32 %44, ptr %42, align 8
  store i32 2, ptr %7, align 4
  br label %45

45:                                               ; preds = %23, %22
  %46 = load i32, ptr %7, align 4
  ret i32 %46
}