; Function Attrs: mustprogress nofree nounwind willreturn memory(read, argmem: readwrite, inaccessiblemem: none) uwtable
define internal range(i32 0, 3) i32 @gettoken_query_plain(ptr noundef captures(none) %0, ptr readnone captures(none) %1, ptr noundef writeonly captures(none) %2, ptr noundef writeonly captures(none) %3, ptr noundef writeonly captures(none) initializes((0, 2)) %4, ptr noundef writeonly captures(none) initializes((0, 1)) %5) #4 {
  store i16 0, ptr %4, align 2
  store i8 0, ptr %5, align 1
  %7 = getelementptr inbounds nuw i8, ptr %0, i64 16
  %8 = load ptr, ptr %7, align 8
  %9 = load i8, ptr %8, align 1
  %10 = icmp eq i8 %9, 0
  br i1 %10, label %21, label %11

11:                                               ; preds = %6
  store ptr %8, ptr %3, align 8
  %12 = load ptr, ptr %7, align 8
  %13 = tail call i64 @strlen(ptr noundef nonnull dereferenceable(1) %12) #14
  %14 = trunc i64 %13 to i32
  store i32 %14, ptr %2, align 4
  %15 = load ptr, ptr %7, align 8
  %sext = shl i64 %13, 32
  %16 = ashr exact i64 %sext, 32
  %17 = getelementptr inbounds i8, ptr %15, i64 %16
  store ptr %17, ptr %7, align 8
  %18 = getelementptr inbounds nuw i8, ptr %0, i64 24
  %19 = load i32, ptr %18, align 8
  %20 = add i32 %19, 1
  store i32 %20, ptr %18, align 8
  br label %21

21:                                               ; preds = %6, %11
  %.0 = phi i32 [ 2, %11 ], [ 0, %6 ]
  ret i32 %.0
}